; Function Attrs: nounwind uwtable
define dso_local ptr @_nc_Copy_Argument(ptr noundef %0, ptr noundef %1, ptr noundef %2) local_unnamed_addr #0 {
  %.not = icmp eq ptr %0, null
  br i1 %.not, label %common.ret31, label %4

4:                                                ; preds = %3
  %5 = load i16, ptr %0, align 8, !tbaa !4
  %6 = zext i16 %5 to i32
  %7 = and i32 %6, 2
  %.not26 = icmp eq i32 %7, 0
  br i1 %.not26, label %common.ret31, label %8

8:                                                ; preds = %4
  %9 = and i32 %6, 1
  %.not27 = icmp eq i32 %9, 0
  br i1 %.not27, label %22, label %10

10:                                               ; preds = %8
  %11 = tail call noalias dereferenceable_or_null(16) ptr @malloc(i64 noundef 16) #7
  %.not30 = icmp eq ptr %11, null
  br i1 %.not30, label %19, label %12

common.ret31:                                     ; preds = %3, %4, %27, %25, %19, %22, %12
  %common.ret31.op = phi ptr [ %11, %12 ], [ null, %19 ], [ %26, %25 ], [ null, %27 ], [ null, %4 ], [ null, %3 ], [ %1, %22 ]
  ret ptr %common.ret31.op

12:                                               ; preds = %10
  %13 = load ptr, ptr %1, align 8, !tbaa !13
  %14 = tail call ptr @_nc_Copy_Argument(ptr noundef nonnull %0, ptr noundef %13, ptr noundef %2)
  store ptr %14, ptr %11, align 8, !tbaa !13
  %15 = getelementptr inbounds nuw i8, ptr %1, i64 8
  %16 = load ptr, ptr %15, align 8, !tbaa !17
  %17 = tail call ptr @_nc_Copy_Argument(ptr noundef nonnull %0, ptr noundef %16, ptr noundef %2)
  %18 = getelementptr inbounds nuw i8, ptr %11, i64 8
  store ptr %17, ptr %18, align 8, !tbaa !17
  br label %common.ret31

19:                                               ; preds = %10
  %20 = load i32, ptr %2, align 4, !tbaa !18
  %21 = add nsw i32 %20, 1
  store i32 %21, ptr %2, align 4, !tbaa !18
  br label %common.ret31

22:                                               ; preds = %8
  %23 = getelementptr inbounds nuw i8, ptr %0, i64 40
  %24 = load ptr, ptr %23, align 8, !tbaa !21
  %.not28 = icmp eq ptr %24, null
  br i1 %.not28, label %common.ret31, label %25

25:                                               ; preds = %22
  %26 = tail call ptr %24(ptr noundef %1) #8
  %.not29 = icmp eq ptr %26, null
  br i1 %.not29, label %27, label %common.ret31

27:                                               ; preds = %25
  %28 = load i32, ptr %2, align 4, !tbaa !18
  %29 = add nsw i32 %28, 1
  store i32 %29, ptr %2, align 4, !tbaa !18
  br label %common.ret31
}